target datalayout = "e-m:e-p270:32:32-p271:32:32-p272:64:64-i64:64-i128:128-f80:128-n8:16:32:64-S128"
target triple = "x86_64-pc-linux-gnu"

@hf_msg_version_version = internal global i32 0, align 4
@hf_msg_getblocks_count8 = internal global i32 0, align 4
@hf_msg_getblocks_count16 = internal global i32 0, align 4
@hf_msg_getblocks_count32 = internal global i32 0, align 4
@hf_msg_getblocks_count64 = internal global i32 0, align 4
@hf_bitcoin_msg_getblocks = internal global i32 0, align 4
@hf_msg_getblocks_start = internal global i32 0, align 4
@hf_msg_getblocks_stop = internal global i32 0, align 4
@ett_bitcoin_msg = internal global i32 0, align 4

; Function Attrs: null_pointer_is_valid sspstrong uwtable
define internal void @add_varint_item(ptr noundef %0, ptr noundef %1, i32 noundef %2, i32 noundef %3, i32 noundef %4, i32 noundef %5, i32 noundef %6, i32 noundef %7) #0 {
  %9 = alloca ptr, align 8
  %10 = alloca ptr, align 8
  %11 = alloca i32, align 4
  %12 = alloca i32, align 4
  %13 = alloca i32, align 4
  %14 = alloca i32, align 4
  %15 = alloca i32, align 4
  %16 = alloca i32, align 4
  store ptr %0, ptr %9, align 8
  store ptr %1, ptr %10, align 8
  store i32 %2, ptr %11, align 4
  store i32 %3, ptr %12, align 4
  store i32 %4, ptr %13, align 4
  store i32 %5, ptr %14, align 4
  store i32 %6, ptr %15, align 4
  store i32 %7, ptr %16, align 4
  %17 = load i32, ptr %12, align 4
  switch i32 %17, label %45 [
    i32 1, label %18
    i32 3, label %24
    i32 5, label %31
    i32 9, label %38
  ]

18:                                               ; preds = %8
  %19 = load ptr, ptr %9, align 8
  %20 = load i32, ptr %13, align 4
  %21 = load ptr, ptr %10, align 8
  %22 = load i32, ptr %11, align 4
  %23 = call ptr @proto_tree_add_item(ptr noundef %19, i32 noundef %20, ptr noundef %21, i32 noundef %22, i32 noundef 1, i32 noundef -2147483648)
  br label %45

24:                                               ; preds = %8
  %25 = load ptr, ptr %9, align 8
  %26 = load i32, ptr %14, align 4
  %27 = load ptr, ptr %10, align 8
  %28 = load i32, ptr %11, align 4
  %29 = add i32 %28, 1
  %30 = call ptr @proto_tree_add_item(ptr noundef %25, i32 noundef %26, ptr noundef %27, i32 noundef %29, i32 noundef 2, i32 noundef -2147483648)
  br label %45

31:                                               ; preds = %8
  %32 = load ptr, ptr %9, align 8
  %33 = load i32, ptr %15, align 4
  %34 = load ptr, ptr %10, align 8
  %35 = load i32, ptr %11, align 4
  %36 = add i32 %35, 1
  %37 = call ptr @proto_tree_add_item(ptr noundef %32, i32 noundef %33, ptr noundef %34, i32 noundef %36, i32 noundef 4, i32 noundef -2147483648)
  br label %45

38:                                               ; preds = %8
  %39 = load ptr, ptr %9, align 8
  %40 = load i32, ptr %16, align 4
  %41 = load ptr, ptr %10, align 8
  %42 = load i32, ptr %11, align 4
  %43 = add i32 %42, 1
  %44 = call ptr @proto_tree_add_item(ptr noundef %39, i32 noundef %40, ptr noundef %41, i32 noundef %43, i32 noundef 8, i32 noundef -2147483648)
  br label %45

45:                                               ; preds = %8, %38, %31, %24, %18
  ret void
}

; Function Attrs: null_pointer_is_valid sspstrong uwtable
define internal void @get_varint(ptr noundef %0, i32 noundef %1, ptr noundef %2, ptr noundef %3) #0 {
  %5 = alloca ptr, align 8
  %6 = alloca i32, align 4
  %7 = alloca ptr, align 8
  %8 = alloca ptr, align 8
  %9 = alloca i32, align 4
  %10 = alloca i32, align 4
  store ptr %0, ptr %5, align 8
  store i32 %1, ptr %6, align 4
  store ptr %2, ptr %7, align 8
  store ptr %3, ptr %8, align 8
  call void @llvm.lifetime.start.p0(i64 4, ptr %9) #4
  %11 = load ptr, ptr %5, align 8
  %12 = load i32, ptr %6, align 4
  %13 = call zeroext i8 @tvb_get_uint8(ptr noundef %11, i32 noundef %12)
  %14 = zext i8 %13 to i32
  store i32 %14, ptr %9, align 4
  %15 = load i32, ptr %9, align 4
  %16 = icmp ult i32 %15, 253
  br i1 %16, label %17, label %22

17:                                               ; preds = %4
  %18 = load ptr, ptr %7, align 8
  store i32 1, ptr %18, align 4
  %19 = load i32, ptr %9, align 4
  %20 = zext i32 %19 to i64
  %21 = load ptr, ptr %8, align 8
  store i64 %20, ptr %21, align 8
  store i32 1, ptr %10, align 4
  br label %51

22:                                               ; preds = %4
  %23 = load i32, ptr %9, align 4
  %24 = icmp eq i32 %23, 253
  br i1 %24, label %25, label %33

25:                                               ; preds = %22
  %26 = load ptr, ptr %7, align 8
  store i32 3, ptr %26, align 4
  %27 = load ptr, ptr %5, align 8
  %28 = load i32, ptr %6, align 4
  %29 = add i32 %28, 1
  %30 = call zeroext i16 @tvb_get_letohs(ptr noundef %27, i32 noundef %29)
  %31 = zext i16 %30 to i64
  %32 = load ptr, ptr %8, align 8
  store i64 %31, ptr %32, align 8
  store i32 1, ptr %10, align 4
  br label %51

33:                                               ; preds = %22
  %34 = load i32, ptr %9, align 4
  %35 = icmp eq i32 %34, 254
  br i1 %35, label %36, label %44

36:                                               ; preds = %33
  %37 = load ptr, ptr %7, align 8
  store i32 5, ptr %37, align 4
  %38 = load ptr, ptr %5, align 8
  %39 = load i32, ptr %6, align 4
  %40 = add i32 %39, 1
  %41 = call i32 @tvb_get_letohl(ptr noundef %38, i32 noundef %40)
  %42 = zext i32 %41 to i64
  %43 = load ptr, ptr %8, align 8
  store i64 %42, ptr %43, align 8
  store i32 1, ptr %10, align 4
  br label %51

44:                                               ; preds = %33
  %45 = load ptr, ptr %7, align 8
  store i32 9, ptr %45, align 4
  %46 = load ptr, ptr %5, align 8
  %47 = load i32, ptr %6, align 4
  %48 = add i32 %47, 1
  %49 = call i64 @tvb_get_letoh64(ptr noundef %46, i32 noundef %48)
  %50 = load ptr, ptr %8, align 8
  store i64 %49, ptr %50, align 8
  store i32 1, ptr %10, align 4
  br label %51

51:                                               ; preds = %44, %36, %25, %17
  call void @llvm.lifetime.end.p0(i64 4, ptr %9) #4
  ret void
}

; Function Attrs: null_pointer_is_valid sspstrong uwtable
define internal i32 @dissect_bitcoin_msg_getblocks(ptr noundef %0, ptr noundef %1, ptr noundef %2, ptr noundef %3) #0 {
  %5 = alloca ptr, align 8
  %6 = alloca ptr, align 8
  %7 = alloca ptr, align 8
  %8 = alloca ptr, align 8
  %9 = alloca ptr, align 8
  %10 = alloca i32, align 4
  %11 = alloca i64, align 8
  %12 = alloca i32, align 4
  store ptr %0, ptr %5, align 8
  store ptr %1, ptr %6, align 8
  store ptr %2, ptr %7, align 8
  store ptr %3, ptr %8, align 8
  call void @llvm.lifetime.start.p0(i64 8, ptr %9) #4
  call void @llvm.lifetime.start.p0(i64 4, ptr %10) #4
  call void @llvm.lifetime.start.p0(i64 8, ptr %11) #4
  call void @llvm.lifetime.start.p0(i64 4, ptr %12) #4
  store i32 0, ptr %12, align 4
  %13 = load ptr, ptr %7, align 8
  %14 = load i32, ptr @hf_bitcoin_msg_getblocks, align 4
  %15 = load ptr, ptr %5, align 8
  %16 = load i32, ptr %12, align 4
  %17 = call ptr @proto_tree_add_item(ptr noundef %13, i32 noundef %14, ptr noundef %15, i32 noundef %16, i32 noundef -1, i32 noundef 0)
  store ptr %17, ptr %9, align 8
  %18 = load ptr, ptr %9, align 8
  %19 = load i32, ptr @ett_bitcoin_msg, align 4
  %20 = call ptr @proto_item_add_subtree(ptr noundef %18, i32 noundef %19)
  store ptr %20, ptr %7, align 8
  %21 = load ptr, ptr %7, align 8
  %22 = load i32, ptr @hf_msg_version_version, align 4
  %23 = load ptr, ptr %5, align 8
  %24 = load i32, ptr %12, align 4
  %25 = call ptr @proto_tree_add_item(ptr noundef %21, i32 noundef %22, ptr noundef %23, i32 noundef %24, i32 noundef 4, i32 noundef -2147483648)
  %26 = load i32, ptr %12, align 4
  %27 = add i32 %26, 4
  store i32 %27, ptr %12, align 4
  %28 = load ptr, ptr %5, align 8
  %29 = load i32, ptr %12, align 4
  call void @get_varint(ptr noundef %28, i32 noundef %29, ptr noundef %10, ptr noundef %11)
  %30 = load ptr, ptr %7, align 8
  %31 = load ptr, ptr %5, align 8
  %32 = load i32, ptr %12, align 4
  %33 = load i32, ptr %10, align 4
  %34 = load i32, ptr @hf_msg_getblocks_count8, align 4
  %35 = load i32, ptr @hf_msg_getblocks_count16, align 4
  %36 = load i32, ptr @hf_msg_getblocks_count32, align 4
  %37 = load i32, ptr @hf_msg_getblocks_count64, align 4
  call void @add_varint_item(ptr noundef %30, ptr noundef %31, i32 noundef %32, i32 noundef %33, i32 noundef %34, i32 noundef %35, i32 noundef %36, i32 noundef %37)
  %38 = load i32, ptr %10, align 4
  %39 = load i32, ptr %12, align 4
  %40 = add i32 %39, %38
  store i32 %40, ptr %12, align 4
  br label %41

41:                                               ; preds = %52, %4
  %42 = load i64, ptr %11, align 8
  %43 = icmp ugt i64 %42, 0
  br i1 %43, label %44, label %55

44:                                               ; preds = %41
  %45 = load ptr, ptr %7, align 8
  %46 = load i32, ptr @hf_msg_getblocks_start, align 4
  %47 = load ptr, ptr %5, align 8
  %48 = load i32, ptr %12, align 4
  %49 = call ptr @proto_tree_add_item(ptr noundef %45, i32 noundef %46, ptr noundef %47, i32 noundef %48, i32 noundef 32, i32 noundef 0)
  %50 = load i32, ptr %12, align 4
  %51 = add i32 %50, 32
  store i32 %51, ptr %12, align 4
  br label %52

52:                                               ; preds = %44
  %53 = load i64, ptr %11, align 8
  %54 = add i64 %53, -1
  store i64 %54, ptr %11, align 8
  br label %41, !llvm.loop !13

55:                                               ; preds = %41
  %56 = load ptr, ptr %7, align 8
  %57 = load i32, ptr @hf_msg_getblocks_stop, align 4
  %58 = load ptr, ptr %5, align 8
  %59 = load i32, ptr %12, align 4
  %60 = call ptr @proto_tree_add_item(ptr noundef %56, i32 noundef %57, ptr noundef %58, i32 noundef %59, i32 noundef 32, i32 noundef 0)
  %61 = load i32, ptr %12, align 4
  %62 = add i32 %61, 32
  store i32 %62, ptr %12, align 4
  %63 = load i32, ptr %12, align 4
  call void @llvm.lifetime.end.p0(i64 4, ptr %12) #4
  call void @llvm.lifetime.end.p0(i64 8, ptr %11) #4
  call void @llvm.lifetime.end.p0(i64 4, ptr %10) #4
  call void @llvm.lifetime.end.p0(i64 8, ptr %9) #4
  ret i32 %63
}